	.text
	.syntax unified
	.eabi_attribute	67, "2.09"	@ Tag_conformance
	.cpu	cortex-a8
	.eabi_attribute	6, 10	@ Tag_CPU_arch
	.eabi_attribute	7, 65	@ Tag_CPU_arch_profile
	.eabi_attribute	8, 1	@ Tag_ARM_ISA_use
	.eabi_attribute	9, 2	@ Tag_THUMB_ISA_use
	.fpu	neon
	.eabi_attribute	17, 1	@ Tag_ABI_PCS_GOT_use
	.eabi_attribute	20, 2	@ Tag_ABI_FP_denormal
	.eabi_attribute	23, 1	@ Tag_ABI_FP_number_model
	.eabi_attribute	34, 1	@ Tag_CPU_unaligned_access
	.eabi_attribute	24, 1	@ Tag_ABI_align_needed
	.eabi_attribute	25, 1	@ Tag_ABI_align_preserved
	.eabi_attribute	28, 1	@ Tag_ABI_VFP_args
	.eabi_attribute	38, 1	@ Tag_ABI_FP_16bit_format
	.eabi_attribute	18, 4	@ Tag_ABI_PCS_wchar_t
	.eabi_attribute	26, 2	@ Tag_ABI_enum_size
	.eabi_attribute	14, 0	@ Tag_ABI_PCS_R9_use
	.eabi_attribute	68, 1	@ Tag_Virtualization_use
	.file	"/root/Bela/projects/TiltAndJoy/build/render.bc"
	.file	1 "/usr/bin/../lib/gcc/arm-linux-gnueabihf/6.3.0/../../../../include/arm-linux-gnueabihf/c++/6.3.0/bits" "c++config.h"
	.file	2 "/usr/bin/../lib/gcc/arm-linux-gnueabihf/6.3.0/../../../../include/c++/6.3.0/bits" "stringfwd.h"
	.file	3 "./libraries/Pipe" "Pipe.h"
	.file	4 "/usr/lib/llvm-3.9/bin/../lib/clang/3.9.1/include" "stddef.h"
	.file	5 "/usr/include/arm-linux-gnueabihf/bits" "types.h"
	.file	6 "/usr/include" "unistd.h"
	.file	7 "/root/Bela/projects/TiltAndJoy" "render.cpp"
	.file	8 "/usr/bin/../lib/gcc/arm-linux-gnueabihf/6.3.0/../../../../include/c++/6.3.0/bits" "unique_ptr.h"
	.file	9 "/usr/bin/../lib/gcc/arm-linux-gnueabihf/6.3.0/../../../../include/c++/6.3.0" "tuple"
	.file	10 "/usr/bin/../lib/gcc/arm-linux-gnueabihf/6.3.0/../../../../include/c++/6.3.0/bits" "uses_allocator.h"
	.file	11 "/usr/bin/../lib/gcc/arm-linux-gnueabihf/6.3.0/../../../../include/c++/6.3.0" "type_traits"
	.file	12 "./libraries/OscSender" "OscSender.h"
	.file	13 "./include" "oscpkt.hh"
	.file	14 "/usr/include" "stdint.h"
	.file	15 "/usr/bin/../lib/gcc/arm-linux-gnueabihf/6.3.0/../../../../include/c++/6.3.0/bits" "alloc_traits.h"
	.file	16 "/usr/bin/../lib/gcc/arm-linux-gnueabihf/6.3.0/../../../../include/c++/6.3.0/bits" "stl_pair.h"
	.file	17 "/usr/bin/../lib/gcc/arm-linux-gnueabihf/6.3.0/../../../../include/c++/6.3.0/ext" "new_allocator.h"
	.file	18 "/usr/bin/../lib/gcc/arm-linux-gnueabihf/6.3.0/../../../../include/arm-linux-gnueabihf/c++/6.3.0/bits" "c++allocator.h"
	.file	19 "/usr/bin/../lib/gcc/arm-linux-gnueabihf/6.3.0/../../../../include/c++/6.3.0/bits" "allocator.h"
	.file	20 "/usr/bin/../lib/gcc/arm-linux-gnueabihf/6.3.0/../../../../include/c++/6.3.0/ext" "alloc_traits.h"
	.file	21 "/usr/bin/../lib/gcc/arm-linux-gnueabihf/6.3.0/../../../../include/c++/6.3.0/bits" "stl_vector.h"
	.file	22 "/usr/bin/../lib/gcc/arm-linux-gnueabihf/6.3.0/../../../../include/c++/6.3.0/bits" "stl_iterator.h"
	.file	23 "/usr/bin/../lib/gcc/arm-linux-gnueabihf/6.3.0/../../../../include/c++/6.3.0/bits" "stl_iterator_base_types.h"
	.file	24 "/usr/bin/../lib/gcc/arm-linux-gnueabihf/6.3.0/../../../../include/c++/6.3.0/ext" "concurrence.h"
	.file	25 "./include" "Bela.h"
	.file	26 "/usr/bin/../lib/gcc/arm-linux-gnueabihf/6.3.0/../../../../include/c++/6.3.0/bits" "basic_string.h"
	.file	27 "/usr/bin/../lib/gcc/arm-linux-gnueabihf/6.3.0/../../../../include/c++/6.3.0/bits" "char_traits.h"
	.file	28 "/usr/include/arm-linux-gnueabihf/bits" "math-finite.h"
	.file	29 "/usr/include/arm-linux-gnueabihf/bits" "mathcalls.h"
	.file	30 "/usr/include/arm-linux-gnueabihf/bits" "mathdef.h"
	.file	31 "/usr/bin/../lib/gcc/arm-linux-gnueabihf/6.3.0/../../../../include/c++/6.3.0/bits" "exception_ptr.h"
	.file	32 "/usr/bin/../lib/gcc/arm-linux-gnueabihf/6.3.0/../../../../include/c++/6.3.0/debug" "debug.h"
	.file	33 "/usr/include" "wchar.h"
	.file	34 "/usr/include" "libio.h"
	.file	35 "/usr/include" "stdio.h"
	.file	36 "/usr/lib/llvm-3.9/bin/../lib/clang/3.9.1/include" "stdarg.h"
	.file	37 "/usr/include" "locale.h"
	.file	38 "/usr/include" "ctype.h"
	.file	39 "/usr/include" "stdlib.h"
	.file	40 "/usr/include/arm-linux-gnueabihf/bits" "stdlib-float.h"
	.file	41 "/usr/include/arm-linux-gnueabihf/bits" "stdlib-bsearch.h"
	.file	42 "/usr/bin/../lib/gcc/arm-linux-gnueabihf/6.3.0/../../../../include/c++/6.3.0" "cstdlib"
	.file	43 "/usr/include" "_G_config.h"
	.file	44 "/usr/include/arm-linux-gnueabihf/bits" "stdio.h"
	.file	45 "/usr/include" "string.h"
	.section	.text._ZN4PipeD2Ev,"axG",%progbits,_ZN4PipeD2Ev,comdat
	.weak	_ZN4PipeD2Ev
	.p2align	2
	.type	_ZN4PipeD2Ev,%function
_ZN4PipeD2Ev:                           @ @_ZN4PipeD2Ev
.Lfunc_begin0:
	.loc	3 14 0                  @ ./libraries/Pipe/Pipe.h:14:0
	.fnstart
	.cfi_startproc
@ BB#0:
	.save	{r4, r5, r11, lr}
	push	{r4, r5, r11, lr}
.Ltmp3:
	.cfi_def_cfa_offset 16
.Ltmp4:
	.cfi_offset lr, -4
.Ltmp5:
	.cfi_offset r11, -8
.Ltmp6:
	.cfi_offset r5, -12
.Ltmp7:
	.cfi_offset r4, -16
	.setfp	r11, sp, #8
	add	r11, sp, #8
.Ltmp8:
	.cfi_def_cfa r11, 8
	@DEBUG_VALUE: ~Pipe:this <- %R0
	mov	r4, r0
.Ltmp9:
	@DEBUG_VALUE: ~Pipe:this <- %R4
	.loc	3 14 11 prologue_end    @ ./libraries/Pipe/Pipe.h:14:11
.Ltmp0:
	bl	_ZN4Pipe7cleanupEv
.Ltmp1:
.Ltmp10:
@ BB#1:
	@DEBUG_VALUE: ~Pipe:this <- %R4
	.loc	26 136 28               @ /usr/bin/../lib/gcc/arm-linux-gnueabihf/6.3.0/../../../../include/c++/6.3.0/bits/basic_string.h:136:28
	ldr	r0, [r4, #24]
.Ltmp11:
	@DEBUG_VALUE: deallocate:__p <- %R0
	@DEBUG_VALUE: deallocate:__p <- %R0
	.loc	26 152 57               @ /usr/bin/../lib/gcc/arm-linux-gnueabihf/6.3.0/../../../../include/c++/6.3.0/bits/basic_string.h:152:57
	add	r1, r4, #32
.Ltmp12:
	.loc	26 180 6                @ /usr/bin/../lib/gcc/arm-linux-gnueabihf/6.3.0/../../../../include/c++/6.3.0/bits/basic_string.h:180:6
	cmp	r0, r1
	beq	.LBB0_3
.Ltmp13:
@ BB#2:
	@DEBUG_VALUE: deallocate:__p <- %R0
	@DEBUG_VALUE: deallocate:__p <- %R0
	@DEBUG_VALUE: ~Pipe:this <- %R4
	.loc	17 110 9                @ /usr/bin/../lib/gcc/arm-linux-gnueabihf/6.3.0/../../../../include/c++/6.3.0/ext/new_allocator.h:110:9
	bl	_ZdlPv
.Ltmp14:
.LBB0_3:                                @ %_ZNSt7__cxx1112basic_stringIcSt11char_traitsIcESaIcEED2Ev.exit
	@DEBUG_VALUE: ~Pipe:this <- %R4
	.loc	26 136 28               @ /usr/bin/../lib/gcc/arm-linux-gnueabihf/6.3.0/../../../../include/c++/6.3.0/bits/basic_string.h:136:28
	mov	r1, r4
	ldr	r0, [r1], #8
.Ltmp15:
	@DEBUG_VALUE: deallocate:__p <- %R0
	@DEBUG_VALUE: deallocate:__p <- %R0
	.loc	26 180 6                @ /usr/bin/../lib/gcc/arm-linux-gnueabihf/6.3.0/../../../../include/c++/6.3.0/bits/basic_string.h:180:6
	cmp	r0, r1
	beq	.LBB0_5
.Ltmp16:
@ BB#4:
	@DEBUG_VALUE: deallocate:__p <- %R0
	@DEBUG_VALUE: deallocate:__p <- %R0
	@DEBUG_VALUE: ~Pipe:this <- %R4
	.loc	17 110 9                @ /usr/bin/../lib/gcc/arm-linux-gnueabihf/6.3.0/../../../../include/c++/6.3.0/ext/new_allocator.h:110:9
	bl	_ZdlPv
.Ltmp17:
.LBB0_5:                                @ %_ZNSt7__cxx1112basic_stringIcSt11char_traitsIcESaIcEED2Ev.exit2
	@DEBUG_VALUE: ~Pipe:this <- %R4
	.loc	3 14 21 discriminator 1 @ ./libraries/Pipe/Pipe.h:14:21
	mov	r0, r4
	pop	{r4, r5, r11, pc}
.Ltmp18:
.LBB0_6:
	@DEBUG_VALUE: ~Pipe:this <- %R4
.Ltmp2:
	mov	r5, r0
	.loc	3 14 21 is_stmt 0 discriminator 2 @ ./libraries/Pipe/Pipe.h:14:21
	add	r0, r4, #24
	bl	_ZNSt7__cxx1112basic_stringIcSt11char_traitsIcESaIcEED2Ev
	.loc	3 14 21 discriminator 5 @ ./libraries/Pipe/Pipe.h:14:21
	mov	r0, r4
	bl	_ZNSt7__cxx1112basic_stringIcSt11char_traitsIcESaIcEED2Ev
.Ltmp19:
	.loc	3 14 21 discriminator 3 @ ./libraries/Pipe/Pipe.h:14:21
	mov	r0, r5
	mov	lr, pc
	b	__cxa_call_unexpected
.Ltmp20:
.Lfunc_end0:
	.size	_ZN4PipeD2Ev, .Lfunc_end0-_ZN4PipeD2Ev
	.cfi_endproc
	.globl	__gxx_personality_v0
	.personality __gxx_personality_v0
	.handlerdata
	.p2align	2
GCC_except_table0:
.Lexception0:
	.byte	255                     @ @LPStart Encoding = omit
	.byte	0                       @ @TType Encoding = absptr
	.asciz	"\236\200\200"          @ @TType base offset
	.byte	3                       @ Call site Encoding = udata4
	.byte	26                      @ Call site table length
	.long	.Ltmp0-.Lfunc_begin0    @ >> Call Site 1 <<
	.long	.Ltmp1-.Ltmp0           @   Call between .Ltmp0 and .Ltmp1
	.long	.Ltmp2-.Lfunc_begin0    @     jumps to .Ltmp2
	.byte	1                       @   On action: 1
	.long	.Ltmp1-.Lfunc_begin0    @ >> Call Site 2 <<
	.long	.Lfunc_end0-.Ltmp1      @   Call between .Ltmp1 and .Lfunc_end0
	.long	0                       @     has no landing pad
	.byte	0                       @   On action: cleanup
	.byte	127                     @ >> Action Record 1 <<
                                        @   Filter TypeInfo -1
	.byte	0                       @   No further actions
                                        @ >> Filter TypeInfos <<
	.long	0
	.p2align	2
	.fnend

	.text
	.globl	setup
	.p2align	2
	.type	setup,%function
setup:                                  @ @setup
.Lfunc_begin1:
	.loc	7 28 0 is_stmt 1        @ /root/Bela/projects/TiltAndJoy/render.cpp:28:0
	.fnstart
	.cfi_startproc
@ BB#0:
	.save	{r4, r5, r6, r10, r11, lr}
	push	{r4, r5, r6, r10, r11, lr}
.Ltmp24:
	.cfi_def_cfa_offset 24
.Ltmp25:
	.cfi_offset lr, -4
.Ltmp26:
	.cfi_offset r11, -8
.Ltmp27:
	.cfi_offset r10, -12
.Ltmp28:
	.cfi_offset r6, -16
.Ltmp29:
	.cfi_offset r5, -20
.Ltmp30:
	.cfi_offset r4, -24
	.setfp	r11, sp, #16
	add	r11, sp, #16
.Ltmp31:
	.cfi_def_cfa r11, 8
	.pad	#24
	sub	sp, sp, #24
	@DEBUG_VALUE: setup:context <- %R0
	@DEBUG_VALUE: setup:userData <- %R1
	mov	r4, r0
.Ltmp32:
	@DEBUG_VALUE: setup:context <- %R4
	.loc	7 31 14 prologue_end    @ /root/Bela/projects/TiltAndJoy/render.cpp:31:14
	ldr	r1, [r4, #36]
.Ltmp33:
	.loc	7 31 32 is_stmt 0       @ /root/Bela/projects/TiltAndJoy/render.cpp:31:32
	cmp	r1, #0
	beq	.LBB1_2
.Ltmp34:
@ BB#1:
	@DEBUG_VALUE: setup:context <- %R4
	.loc	7 31 68 discriminator 1 @ /root/Bela/projects/TiltAndJoy/render.cpp:31:68
	ldr	r0, [r4, #20]
	.loc	7 31 5 discriminator 1  @ /root/Bela/projects/TiltAndJoy/render.cpp:31:5
	cmp	r1, r0
	bls	.LBB1_3
.Ltmp35:
.LBB1_2:
	@DEBUG_VALUE: setup:context <- %R4
	.loc	7 32 3 is_stmt 1        @ /root/Bela/projects/TiltAndJoy/render.cpp:32:3
	movw	r0, :lower16:.L.str
	movt	r0, :upper16:.L.str
	bl	rt_printf
	mov	r0, #0
.Ltmp36:
	.loc	7 51 1 discriminator 2  @ /root/Bela/projects/TiltAndJoy/render.cpp:51:1
	sub	sp, r11, #16
	pop	{r4, r5, r6, r10, r11, pc}
.Ltmp37:
.LBB1_3:
	@DEBUG_VALUE: setup:context <- %R4
	.loc	7 38 53                 @ /root/Bela/projects/TiltAndJoy/render.cpp:38:53
	bl	__aeabi_uidiv
	.loc	7 38 30 is_stmt 0       @ /root/Bela/projects/TiltAndJoy/render.cpp:38:30
	movw	r5, :lower16:.L_MergedGlobals
.Ltmp38:
	.loc	7 39 23 is_stmt 1       @ /root/Bela/projects/TiltAndJoy/render.cpp:39:23
	vmov.f32	d1, #1.000000e+00
.Ltmp39:
	.loc	7 38 30                 @ /root/Bela/projects/TiltAndJoy/render.cpp:38:30
	movt	r5, :upper16:.L_MergedGlobals
	str	r0, [r5, #8]
	mov	r0, #0
.Ltmp40:
	.loc	7 39 38                 @ /root/Bela/projects/TiltAndJoy/render.cpp:39:38
	vldr	s0, [r4, #32]
	.loc	7 39 23 is_stmt 0       @ /root/Bela/projects/TiltAndJoy/render.cpp:39:23
	vdiv.f32	s0, s2, s0
	.loc	7 39 21                 @ /root/Bela/projects/TiltAndJoy/render.cpp:39:21
	vstr	s0, [r5, #4]
	.loc	7 40 9 is_stmt 1        @ /root/Bela/projects/TiltAndJoy/render.cpp:40:9
	str	r0, [r5]
.Ltmp41:
	@DEBUG_VALUE: pinMode:f <- 0
	@DEBUG_VALUE: pinMode:mode <- 0
	@DEBUG_VALUE: pinMode:frame <- 0
	.loc	25 1469 30 discriminator 1 @ ./include/Bela.h:1469:30
	ldr	r1, [r4, #52]
	.loc	25 1469 2 is_stmt 0 discriminator 1 @ ./include/Bela.h:1469:2
	cmp	r1, #0
	beq	.LBB1_6
.Ltmp42:
@ BB#4:                                 @ %.lr.ph.i
	@DEBUG_VALUE: setup:context <- %R4
	.loc	7 42 22 is_stmt 1       @ /root/Bela/projects/TiltAndJoy/render.cpp:42:22
	ldr	r2, [r5, #24]
.Ltmp43:
	.loc	25 1471 30              @ ./include/Bela.h:1471:30
	mov	r3, #1
	.loc	25 1471 13 is_stmt 0    @ ./include/Bela.h:1471:13
	ldr	r1, [r4, #16]
	.loc	25 1471 30              @ ./include/Bela.h:1471:30
	lsl	r2, r3, r2
.Ltmp44:
.LBB1_5:                                @ =>This Inner Loop Header: Depth=1
	.loc	25 1471 24              @ ./include/Bela.h:1471:24
	ldr	r3, [r1, r0, lsl #2]
	orr	r3, r3, r2
	str	r3, [r1, r0, lsl #2]
.Ltmp45:
	.loc	25 1469 46 is_stmt 1 discriminator 2 @ ./include/Bela.h:1469:46
	add	r0, r0, #1
.Ltmp46:
	@DEBUG_VALUE: pinMode:f <- %R0
	.loc	25 1469 30 is_stmt 0 discriminator 1 @ ./include/Bela.h:1469:30
	ldr	r3, [r4, #52]
	.loc	25 1469 2 discriminator 1 @ ./include/Bela.h:1469:2
	cmp	r0, r3
	blo	.LBB1_5
.Ltmp47:
.LBB1_6:                                @ %_ZL7pinModeP11BelaContextiii.exit
	.loc	27 290 33 is_stmt 1     @ /usr/bin/../lib/gcc/arm-linux-gnueabihf/6.3.0/../../../../include/c++/6.3.0/bits/char_traits.h:290:33
	mov	r0, #49
.Ltmp48:
	@DEBUG_VALUE: _S_copy:__n <- 11
	mov	r2, sp
.Ltmp49:
	@DEBUG_VALUE: _M_data:this <- %R2
	@DEBUG_VALUE: _M_length:this <- %R2
	@DEBUG_VALUE: _M_set_length:__n <- 11
	@DEBUG_VALUE: _M_set_length:this <- %R2
	@DEBUG_VALUE: _M_data:this <- %R2
	@DEBUG_VALUE: _M_construct<const char *>:__dnew <- 11
	@DEBUG_VALUE: _M_construct<const char *>:this <- %R2
	@DEBUG_VALUE: _M_construct_aux<const char *>:this <- %R2
	@DEBUG_VALUE: _M_construct<const char *>:this <- %R2
	@DEBUG_VALUE: _S_copy_chars:__p <- %R6
	@DEBUG_VALUE: _S_copy:__d <- %R6
	@DEBUG_VALUE: _M_local_data:this <- %R2
	.loc	26 142 51               @ /usr/bin/../lib/gcc/arm-linux-gnueabihf/6.3.0/../../../../include/c++/6.3.0/bits/basic_string.h:142:51
	add	r6, r2, #8
.Ltmp50:
	.loc	26 110 25               @ /usr/bin/../lib/gcc/arm-linux-gnueabihf/6.3.0/../../../../include/c++/6.3.0/bits/basic_string.h:110:25
	str	r6, [sp]
.Ltmp51:
	.loc	27 290 33               @ /usr/bin/../lib/gcc/arm-linux-gnueabihf/6.3.0/../../../../include/c++/6.3.0/bits/char_traits.h:290:33
	strb	r0, [sp, #18]
	movw	r0, :lower16:.L.str.2
	movt	r0, :upper16:.L.str.2
.Ltmp52:
	@DEBUG_VALUE: _S_copy:__s <- %R0
	vldr	d16, [r0]
	movw	r0, #11830
.Ltmp53:
	strh	r0, [sp, #16]
	mov	r0, #11
.Ltmp54:
	@DEBUG_VALUE: _M_length:__length <- 11
	vstr	d16, [sp, #8]
.Ltmp55:
	.loc	26 132 26               @ /usr/bin/../lib/gcc/arm-linux-gnueabihf/6.3.0/../../../../include/c++/6.3.0/bits/basic_string.h:132:26
	str	r0, [sp, #4]
.Ltmp56:
	.loc	27 243 14               @ /usr/bin/../lib/gcc/arm-linux-gnueabihf/6.3.0/../../../../include/c++/6.3.0/bits/char_traits.h:243:14
	mov	r0, #0
	strb	r0, [sp, #19]
.Ltmp57:
	.loc	7 44 12 discriminator 1 @ /root/Bela/projects/TiltAndJoy/render.cpp:44:12
.Ltmp21:
	add	r0, r5, #44
	mov	r1, #24
	bl	_ZN9OscSender5setupEiNSt7__cxx1112basic_stringIcSt11char_traitsIcESaIcEEE
.Ltmp58:
.Ltmp22:
@ BB#7:
.Ltmp59:
	.loc	26 136 28               @ /usr/bin/../lib/gcc/arm-linux-gnueabihf/6.3.0/../../../../include/c++/6.3.0/bits/basic_string.h:136:28
	ldr	r0, [sp]
.Ltmp60:
	@DEBUG_VALUE: deallocate:__p <- %R0
	@DEBUG_VALUE: deallocate:__p <- %R0
	.loc	26 180 6                @ /usr/bin/../lib/gcc/arm-linux-gnueabihf/6.3.0/../../../../include/c++/6.3.0/bits/basic_string.h:180:6
	cmp	r0, r6
	beq	.LBB1_9
.Ltmp61:
@ BB#8:
	@DEBUG_VALUE: deallocate:__p <- %R0
	@DEBUG_VALUE: deallocate:__p <- %R0
	.loc	17 110 9                @ /usr/bin/../lib/gcc/arm-linux-gnueabihf/6.3.0/../../../../include/c++/6.3.0/ext/new_allocator.h:110:9
	bl	_ZdlPv
.Ltmp62:
.LBB1_9:                                @ %_ZNSt7__cxx1112basic_stringIcSt11char_traitsIcESaIcEED2Ev.exit12
	mov	r0, #0
	.loc	7 48 4                  @ /root/Bela/projects/TiltAndJoy/render.cpp:48:4
	mov	r1, #1065353216
	.loc	7 46 4                  @ /root/Bela/projects/TiltAndJoy/render.cpp:46:4
	str	r0, [r5, #28]
	.loc	7 47 4                  @ /root/Bela/projects/TiltAndJoy/render.cpp:47:4
	str	r0, [r5, #32]
	.loc	7 48 4                  @ /root/Bela/projects/TiltAndJoy/render.cpp:48:4
	str	r1, [r5, #36]
	.loc	7 49 8                  @ /root/Bela/projects/TiltAndJoy/render.cpp:49:8
	str	r0, [r5, #40]
	mov	r0, #1
	.loc	7 51 1 discriminator 2  @ /root/Bela/projects/TiltAndJoy/render.cpp:51:1
	sub	sp, r11, #16
	pop	{r4, r5, r6, r10, r11, pc}
.LBB1_10:
.Ltmp23:
	mov	r4, r0
.Ltmp63:
	.loc	26 136 28               @ /usr/bin/../lib/gcc/arm-linux-gnueabihf/6.3.0/../../../../include/c++/6.3.0/bits/basic_string.h:136:28
	ldr	r0, [sp]
.Ltmp64:
	@DEBUG_VALUE: deallocate:__p <- %R0
	@DEBUG_VALUE: deallocate:__p <- %R0
	.loc	26 180 6                @ /usr/bin/../lib/gcc/arm-linux-gnueabihf/6.3.0/../../../../include/c++/6.3.0/bits/basic_string.h:180:6
	cmp	r0, r6
	beq	.LBB1_12
.Ltmp65:
@ BB#11:
	@DEBUG_VALUE: deallocate:__p <- %R0
	@DEBUG_VALUE: deallocate:__p <- %R0
	.loc	17 110 9                @ /usr/bin/../lib/gcc/arm-linux-gnueabihf/6.3.0/../../../../include/c++/6.3.0/ext/new_allocator.h:110:9
	bl	_ZdlPv
.Ltmp66:
.LBB1_12:                               @ %_ZNSt7__cxx1112basic_stringIcSt11char_traitsIcESaIcEED2Ev.exit
	mov	r0, r4
	mov	lr, pc
	b	_Unwind_Resume
.Lfunc_end1:
	.size	setup, .Lfunc_end1-setup
	.cfi_endproc
	.file	46 "/usr/bin/../lib/gcc/arm-linux-gnueabihf/6.3.0/../../../../include/c++/6.3.0/bits" "basic_string.tcc"
	.file	47 "/usr/bin/../lib/gcc/arm-linux-gnueabihf/6.3.0/../../../../include/c++/6.3.0/bits" "cpp_type_traits.h"
	.globl	__gxx_personality_v0
	.personality __gxx_personality_v0
	.handlerdata
	.p2align	2
GCC_except_table1:
.Lexception1:
	.byte	255                     @ @LPStart Encoding = omit
	.byte	0                       @ @TType Encoding = absptr
	.byte	41                      @ @TType base offset
	.byte	3                       @ Call site Encoding = udata4
	.byte	39                      @ Call site table length
	.long	.Lfunc_begin1-.Lfunc_begin1 @ >> Call Site 1 <<
	.long	.Ltmp21-.Lfunc_begin1   @   Call between .Lfunc_begin1 and .Ltmp21
	.long	0                       @     has no landing pad
	.byte	0                       @   On action: cleanup
	.long	.Ltmp21-.Lfunc_begin1   @ >> Call Site 2 <<
	.long	.Ltmp22-.Ltmp21         @   Call between .Ltmp21 and .Ltmp22
	.long	.Ltmp23-.Lfunc_begin1   @     jumps to .Ltmp23
	.byte	0                       @   On action: cleanup
	.long	.Ltmp22-.Lfunc_begin1   @ >> Call Site 3 <<
	.long	.Lfunc_end1-.Ltmp22     @   Call between .Ltmp22 and .Lfunc_end1
	.long	0                       @     has no landing pad
	.byte	0                       @   On action: cleanup
	.p2align	2
	.fnend

	.globl	render
	.p2align	3
	.type	render,%function
render:                                 @ @render
.Lfunc_begin2:
	.loc	7 54 0                  @ /root/Bela/projects/TiltAndJoy/render.cpp:54:0
	.fnstart
	.cfi_startproc
@ BB#0:                                 @ %._crit_edge.i.i.i.i
	.save	{r4, r5, r11, lr}
	push	{r4, r5, r11, lr}
.Ltmp80:
	.cfi_def_cfa_offset 16
.Ltmp81:
	.cfi_offset lr, -4
.Ltmp82:
	.cfi_offset r11, -8
.Ltmp83:
	.cfi_offset r5, -12
.Ltmp84:
	.cfi_offset r4, -16
	.setfp	r11, sp, #8
	add	r11, sp, #8
.Ltmp85:
	.cfi_def_cfa r11, 8
	.pad	#24
	sub	sp, sp, #24
	@DEBUG_VALUE: render:context <- %R0
	@DEBUG_VALUE: render:userData <- %R1
.Ltmp86:
	.loc	7 58 31 prologue_end    @ /root/Bela/projects/TiltAndJoy/render.cpp:58:31
	movw	r4, :lower16:.L_MergedGlobals
	ldr	r2, [r0, #8]
.Ltmp87:
	@DEBUG_VALUE: analogRead:frame <- 0
	movt	r4, :upper16:.L_MergedGlobals
	.loc	7 58 45 is_stmt 0       @ /root/Bela/projects/TiltAndJoy/render.cpp:58:45
	vldr	d17, .LCPI2_0
	.loc	7 58 31                 @ /root/Bela/projects/TiltAndJoy/render.cpp:58:31
	ldr	r1, [r4, #20]
.Ltmp88:
	.loc	25 1400 9 is_stmt 1     @ ./include/Bela.h:1400:9
	add	r1, r2, r1, lsl #2
	vldr	s0, [r1]
.Ltmp89:
	.loc	7 58 8                  @ /root/Bela/projects/TiltAndJoy/render.cpp:58:8
	vcvt.f64.f32	d16, s0
	.loc	7 58 45 is_stmt 0       @ /root/Bela/projects/TiltAndJoy/render.cpp:58:45
	vmul.f64	d16, d16, d17
	.loc	7 58 8                  @ /root/Bela/projects/TiltAndJoy/render.cpp:58:8
	vcvt.f32.f64	s0, d16
	.loc	7 58 6                  @ /root/Bela/projects/TiltAndJoy/render.cpp:58:6
	vstr	s0, [r4, #28]
	.loc	7 59 31 is_stmt 1       @ /root/Bela/projects/TiltAndJoy/render.cpp:59:31
	ldr	r1, [r4, #16]
.Ltmp90:
	@DEBUG_VALUE: analogRead:frame <- 0
	.loc	25 1400 9               @ ./include/Bela.h:1400:9
	add	r1, r2, r1, lsl #2
	vldr	s0, [r1]
.Ltmp91:
	.loc	7 59 8                  @ /root/Bela/projects/TiltAndJoy/render.cpp:59:8
	vcvt.f64.f32	d16, s0
	.loc	7 59 45 is_stmt 0       @ /root/Bela/projects/TiltAndJoy/render.cpp:59:45
	vmul.f64	d16, d16, d17
	.loc	7 59 8                  @ /root/Bela/projects/TiltAndJoy/render.cpp:59:8
	vcvt.f32.f64	s0, d16
	.loc	7 59 6                  @ /root/Bela/projects/TiltAndJoy/render.cpp:59:6
	vstr	s0, [r4, #32]
	.loc	7 60 31 is_stmt 1       @ /root/Bela/projects/TiltAndJoy/render.cpp:60:31
	ldr	r1, [r4, #12]
.Ltmp92:
	@DEBUG_VALUE: analogRead:frame <- 0
	.loc	25 1400 9               @ ./include/Bela.h:1400:9
	ldr	r1, [r2, r1, lsl #2]
	mov	r2, #1
.Ltmp93:
	.loc	7 60 6                  @ /root/Bela/projects/TiltAndJoy/render.cpp:60:6
	str	r1, [r4, #36]
	ldr	r0, [r0, #16]
.Ltmp94:
	.loc	7 64 34                 @ /root/Bela/projects/TiltAndJoy/render.cpp:64:34
	ldr	r1, [r4, #24]
	ldr	r0, [r0]
.Ltmp95:
	@DEBUG_VALUE: digitalRead:frame <- 0
	.loc	25 1438 49              @ ./include/Bela.h:1438:49
	add	r1, r1, #16
	.loc	25 1438 56 is_stmt 0    @ ./include/Bela.h:1438:56
	and	r0, r2, r0, lsr r1
	mov	r1, sp
.Ltmp96:
	@DEBUG_VALUE: _M_data:this <- %R1
	@DEBUG_VALUE: _M_length:this <- %R1
	@DEBUG_VALUE: _M_set_length:__n <- 5
	@DEBUG_VALUE: _M_set_length:this <- %R1
	@DEBUG_VALUE: _M_data:this <- %R1
	@DEBUG_VALUE: _M_construct<const char *>:__dnew <- 5
	@DEBUG_VALUE: _M_construct<const char *>:this <- %R1
	@DEBUG_VALUE: _M_construct_aux<const char *>:this <- %R1
	@DEBUG_VALUE: _M_construct<const char *>:this <- %R1
	@DEBUG_VALUE: _S_copy_chars:__p <- %R5
	@DEBUG_VALUE: _S_copy:__d <- %R5
	@DEBUG_VALUE: _M_local_data:this <- %R1
	.loc	26 142 51 is_stmt 1     @ /usr/bin/../lib/gcc/arm-linux-gnueabihf/6.3.0/../../../../include/c++/6.3.0/bits/basic_string.h:142:51
	add	r5, r1, #8
.Ltmp97:
	.loc	26 110 25               @ /usr/bin/../lib/gcc/arm-linux-gnueabihf/6.3.0/../../../../include/c++/6.3.0/bits/basic_string.h:110:25
	str	r5, [sp]
.Ltmp98:
	.loc	7 64 10                 @ /root/Bela/projects/TiltAndJoy/render.cpp:64:10
	vmov	s0, r0
.Ltmp99:
	.loc	27 290 33               @ /usr/bin/../lib/gcc/arm-linux-gnueabihf/6.3.0/../../../../include/c++/6.3.0/bits/char_traits.h:290:33
	mov	r0, #103
.Ltmp100:
	@DEBUG_VALUE: _S_copy:__n <- 5
	.loc	7 64 10                 @ /root/Bela/projects/TiltAndJoy/render.cpp:64:10
	vcvt.f32.s32	d0, d0
.Ltmp101:
	.loc	27 290 33               @ /usr/bin/../lib/gcc/arm-linux-gnueabihf/6.3.0/../../../../include/c++/6.3.0/bits/char_traits.h:290:33
	strb	r0, [sp, #12]
	movw	r0, #29743
	movt	r0, #26994
	str	r0, [sp, #8]
	mov	r0, #5
.Ltmp102:
	@DEBUG_VALUE: _M_length:__length <- 5
	.loc	26 132 26               @ /usr/bin/../lib/gcc/arm-linux-gnueabihf/6.3.0/../../../../include/c++/6.3.0/bits/basic_string.h:132:26
	str	r0, [sp, #4]
.Ltmp103:
	.loc	27 243 14               @ /usr/bin/../lib/gcc/arm-linux-gnueabihf/6.3.0/../../../../include/c++/6.3.0/bits/char_traits.h:243:14
	mov	r0, #0
.Ltmp104:
	.loc	7 64 8                  @ /root/Bela/projects/TiltAndJoy/render.cpp:64:8
	vstr	s0, [r4, #40]
.Ltmp105:
	.loc	27 243 14               @ /usr/bin/../lib/gcc/arm-linux-gnueabihf/6.3.0/../../../../include/c++/6.3.0/bits/char_traits.h:243:14
	strb	r0, [sp, #13]
.Ltmp106:
	.loc	7 68 12 discriminator 1 @ /root/Bela/projects/TiltAndJoy/render.cpp:68:12
.Ltmp67:
	add	r0, r4, #44
	bl	_ZN9OscSender10newMessageENSt7__cxx1112basic_stringIcSt11char_traitsIcESaIcEEE
.Ltmp107:
.Ltmp68:
@ BB#1:
	.loc	7 68 36 is_stmt 0 discriminator 2 @ /root/Bela/projects/TiltAndJoy/render.cpp:68:36
	vldr	s0, [r4, #28]
	.loc	7 68 32 discriminator 2 @ /root/Bela/projects/TiltAndJoy/render.cpp:68:32
.Ltmp69:
	bl	_ZN9OscSender3addEf
.Ltmp70:
@ BB#2:
	.loc	7 68 43 discriminator 3 @ /root/Bela/projects/TiltAndJoy/render.cpp:68:43
	vldr	s0, [r4, #32]
	.loc	7 68 39 discriminator 3 @ /root/Bela/projects/TiltAndJoy/render.cpp:68:39
.Ltmp71:
	bl	_ZN9OscSender3addEf
.Ltmp72:
@ BB#3:
	.loc	7 68 50 discriminator 4 @ /root/Bela/projects/TiltAndJoy/render.cpp:68:50
	vldr	s0, [r4, #36]
	.loc	7 68 46 discriminator 4 @ /root/Bela/projects/TiltAndJoy/render.cpp:68:46
.Ltmp73:
	bl	_ZN9OscSender3addEf
.Ltmp74:
@ BB#4:
	.loc	7 68 57 discriminator 5 @ /root/Bela/projects/TiltAndJoy/render.cpp:68:57
	vldr	s0, [r4, #40]
	.loc	7 68 53 discriminator 5 @ /root/Bela/projects/TiltAndJoy/render.cpp:68:53
.Ltmp75:
	bl	_ZN9OscSender3addEf
.Ltmp76:
@ BB#5:
	.loc	7 68 64 discriminator 6 @ /root/Bela/projects/TiltAndJoy/render.cpp:68:64
.Ltmp77:
	bl	_ZN9OscSender4sendEv
.Ltmp78:
@ BB#6:
.Ltmp108:
	.loc	26 136 28 is_stmt 1     @ /usr/bin/../lib/gcc/arm-linux-gnueabihf/6.3.0/../../../../include/c++/6.3.0/bits/basic_string.h:136:28
	ldr	r0, [sp]
.Ltmp109:
	@DEBUG_VALUE: deallocate:__p <- %R0
	@DEBUG_VALUE: deallocate:__p <- %R0
	.loc	26 180 6                @ /usr/bin/../lib/gcc/arm-linux-gnueabihf/6.3.0/../../../../include/c++/6.3.0/bits/basic_string.h:180:6
	cmp	r0, r5
	beq	.LBB2_8
.Ltmp110:
@ BB#7:
	@DEBUG_VALUE: deallocate:__p <- %R0
	@DEBUG_VALUE: deallocate:__p <- %R0
	.loc	17 110 9                @ /usr/bin/../lib/gcc/arm-linux-gnueabihf/6.3.0/../../../../include/c++/6.3.0/ext/new_allocator.h:110:9
	bl	_ZdlPv
.Ltmp111:
.LBB2_8:                                @ %_ZNSt7__cxx1112basic_stringIcSt11char_traitsIcESaIcEED2Ev.exit9
	.loc	7 70 1                  @ /root/Bela/projects/TiltAndJoy/render.cpp:70:1
	sub	sp, r11, #8
	pop	{r4, r5, r11, pc}
.LBB2_9:
.Ltmp79:
	mov	r4, r0
.Ltmp112:
	.loc	26 136 28               @ /usr/bin/../lib/gcc/arm-linux-gnueabihf/6.3.0/../../../../include/c++/6.3.0/bits/basic_string.h:136:28
	ldr	r0, [sp]
.Ltmp113:
	@DEBUG_VALUE: deallocate:__p <- %R0
	@DEBUG_VALUE: deallocate:__p <- %R0
	.loc	26 180 6                @ /usr/bin/../lib/gcc/arm-linux-gnueabihf/6.3.0/../../../../include/c++/6.3.0/bits/basic_string.h:180:6
	cmp	r0, r5
	beq	.LBB2_11
.Ltmp114:
@ BB#10:
	@DEBUG_VALUE: deallocate:__p <- %R0
	@DEBUG_VALUE: deallocate:__p <- %R0
	.loc	17 110 9                @ /usr/bin/../lib/gcc/arm-linux-gnueabihf/6.3.0/../../../../include/c++/6.3.0/ext/new_allocator.h:110:9
	bl	_ZdlPv
.Ltmp115:
.LBB2_11:                               @ %_ZNSt7__cxx1112basic_stringIcSt11char_traitsIcESaIcEED2Ev.exit
	mov	r0, r4
	mov	lr, pc
	b	_Unwind_Resume
	.p2align	3
@ BB#12:
.LCPI2_0:
	.long	3272356035              @ double 1.1904761904761905
	.long	1072892976
.Lfunc_end2:
	.size	render, .Lfunc_end2-render
	.cfi_endproc
	.globl	__gxx_personality_v0
	.personality __gxx_personality_v0
	.handlerdata
	.p2align	2
GCC_except_table2:
.Lexception2:
	.byte	255                     @ @LPStart Encoding = omit
	.byte	0                       @ @TType Encoding = absptr
	.asciz	"\234"                  @ @TType base offset
	.byte	3                       @ Call site Encoding = udata4
	.byte	26                      @ Call site table length
	.long	.Ltmp67-.Lfunc_begin2   @ >> Call Site 1 <<
	.long	.Ltmp78-.Ltmp67         @   Call between .Ltmp67 and .Ltmp78
	.long	.Ltmp79-.Lfunc_begin2   @     jumps to .Ltmp79
	.byte	0                       @   On action: cleanup
	.long	.Ltmp78-.Lfunc_begin2   @ >> Call Site 2 <<
	.long	.Lfunc_end2-.Ltmp78     @   Call between .Ltmp78 and .Lfunc_end2
	.long	0                       @     has no landing pad
	.byte	0                       @   On action: cleanup
	.p2align	2
	.fnend

	.globl	cleanup
	.p2align	2
	.type	cleanup,%function
cleanup:                                @ @cleanup
.Lfunc_begin3:
	.loc	7 73 0                  @ /root/Bela/projects/TiltAndJoy/render.cpp:73:0
	.fnstart
	.cfi_startproc
@ BB#0:
	@DEBUG_VALUE: cleanup:context <- %R0
	@DEBUG_VALUE: cleanup:userData <- %R1
	.loc	7 75 1 prologue_end     @ /root/Bela/projects/TiltAndJoy/render.cpp:75:1
	bx	lr
.Ltmp116:
.Lfunc_end3:
	.size	cleanup, .Lfunc_end3-cleanup
	.cfi_endproc
	.fnend

	.section	.text.startup,"ax",%progbits
	.p2align	2
	.type	_GLOBAL__sub_I_render.ii,%function
_GLOBAL__sub_I_render.ii:               @ @_GLOBAL__sub_I_render.ii
.Lfunc_begin4:
	.file	48 "/root/Bela/projects/TiltAndJoy/build" "render.cpp"
	.loc	48 0 0                  @ /root/Bela/projects/TiltAndJoy/build/render.cpp:0:0
	.fnstart
	.cfi_startproc
@ BB#0:
	.save	{r4, r5, r11, lr}
	push	{r4, r5, r11, lr}
.Ltmp117:
	.cfi_def_cfa_offset 16
.Ltmp118:
	.cfi_offset lr, -4
.Ltmp119:
	.cfi_offset r11, -8
.Ltmp120:
	.cfi_offset r5, -12
.Ltmp121:
	.cfi_offset r4, -16
	.setfp	r11, sp, #8
	add	r11, sp, #8
.Ltmp122:
	.cfi_def_cfa r11, 8
.Ltmp123:
	.loc	26 110 25 prologue_end  @ /usr/bin/../lib/gcc/arm-linux-gnueabihf/6.3.0/../../../../include/c++/6.3.0/bits/basic_string.h:110:25
	movw	r1, :lower16:oscPipe
.Ltmp124:
	.loc	3 88 9                  @ ./libraries/Pipe/Pipe.h:88:9
	vmov.i32	q8, #0x0
.Ltmp125:
	.loc	26 110 25               @ /usr/bin/../lib/gcc/arm-linux-gnueabihf/6.3.0/../../../../include/c++/6.3.0/bits/basic_string.h:110:25
	movt	r1, :upper16:oscPipe
	add	r0, r1, #8
.Ltmp126:
	@DEBUG_VALUE: assign:__c1 <- %R0
	str	r0, [r1]
	mov	r0, #0
.Ltmp127:
	@DEBUG_VALUE: _M_length:__length <- 0
	@DEBUG_VALUE: _M_set_length:__n <- 0
	.loc	26 110 25 is_stmt 0     @ /usr/bin/../lib/gcc/arm-linux-gnueabihf/6.3.0/../../../../include/c++/6.3.0/bits/basic_string.h:110:25
	add	r2, r1, #32
.Ltmp128:
	.loc	26 132 26 is_stmt 1     @ /usr/bin/../lib/gcc/arm-linux-gnueabihf/6.3.0/../../../../include/c++/6.3.0/bits/basic_string.h:132:26
	str	r0, [r1, #4]
.Ltmp129:
	.loc	27 243 14               @ /usr/bin/../lib/gcc/arm-linux-gnueabihf/6.3.0/../../../../include/c++/6.3.0/bits/char_traits.h:243:14
	strb	r0, [r1, #8]
.Ltmp130:
	.loc	7 7 6 discriminator 1   @ /root/Bela/projects/TiltAndJoy/render.cpp:7:6
	movw	r4, :lower16:__dso_handle
.Ltmp131:
	.loc	26 110 25               @ /usr/bin/../lib/gcc/arm-linux-gnueabihf/6.3.0/../../../../include/c++/6.3.0/bits/basic_string.h:110:25
	str	r2, [r1, #24]
.Ltmp132:
	@DEBUG_VALUE: _M_length:__length <- 0
	@DEBUG_VALUE: _M_set_length:__n <- 0
	.loc	3 88 9                  @ ./libraries/Pipe/Pipe.h:88:9
	add	r2, r1, #64
.Ltmp133:
	.loc	26 132 26               @ /usr/bin/../lib/gcc/arm-linux-gnueabihf/6.3.0/../../../../include/c++/6.3.0/bits/basic_string.h:132:26
	str	r0, [r1, #28]
.Ltmp134:
	@DEBUG_VALUE: assign:__c1 <- %R2
	.loc	7 7 6 discriminator 1   @ /root/Bela/projects/TiltAndJoy/render.cpp:7:6
	movt	r4, :upper16:__dso_handle
.Ltmp135:
	.loc	27 243 14               @ /usr/bin/../lib/gcc/arm-linux-gnueabihf/6.3.0/../../../../include/c++/6.3.0/bits/char_traits.h:243:14
	strb	r0, [r1, #32]
.Ltmp136:
	.loc	3 86 6                  @ ./libraries/Pipe/Pipe.h:86:6
	str	r0, [r1, #52]
	.loc	3 88 9                  @ ./libraries/Pipe/Pipe.h:88:9
	vst1.64	{d16, d17}, [r2]
.Ltmp137:
	.loc	7 7 6 discriminator 1   @ /root/Bela/projects/TiltAndJoy/render.cpp:7:6
	mov	r2, r4
.Ltmp138:
	.loc	3 88 9                  @ ./libraries/Pipe/Pipe.h:88:9
	strh	r0, [r1, #80]
.Ltmp139:
	.loc	7 7 6 discriminator 1   @ /root/Bela/projects/TiltAndJoy/render.cpp:7:6
	movw	r0, :lower16:_ZN4PipeD2Ev
	movt	r0, :upper16:_ZN4PipeD2Ev
	bl	__cxa_atexit
.Ltmp140:
	.loc	7 8 11                  @ /root/Bela/projects/TiltAndJoy/render.cpp:8:11
	movw	r0, :lower16:.L_MergedGlobals
	movt	r0, :upper16:.L_MergedGlobals
	add	r5, r0, #44
	mov	r0, r5
	bl	_ZN9OscSenderC1Ev
	.loc	7 8 11 is_stmt 0 discriminator 1 @ /root/Bela/projects/TiltAndJoy/render.cpp:8:11
	movw	r0, :lower16:_ZN9OscSenderD1Ev
	mov	r1, r5
	movt	r0, :upper16:_ZN9OscSenderD1Ev
	mov	r2, r4
.Ltmp141:
	@DEBUG_VALUE: Pipe:this <- %R1
	pop	{r4, r5, r11, lr}
	b	__cxa_atexit
.Ltmp142:
.Lfunc_end4:
	.size	_GLOBAL__sub_I_render.ii, .Lfunc_end4-_GLOBAL__sub_I_render.ii
	.cfi_endproc
	.fnend

	.type	oscPipe,%object         @ @oscPipe
	.bss
	.globl	oscPipe
	.p2align	3
oscPipe:
	.zero	88
	.size	oscPipe, 88

	.type	.L.str,%object          @ @.str
	.section	.rodata.str1.1,"aMS",%progbits,1
.L.str:
	.asciz	"Error: this example needs analog enabled, with 4 or 8 channels\n"
	.size	.L.str, 64

	.type	.L.str.2,%object        @ @.str.2
	.section	.rodata.str1.8,"aMS",%progbits,1
	.p2align	3
.L.str.2:
	.asciz	"192.168.6.1"
	.size	.L.str.2, 12

	.type	.L.str.3,%object        @ @.str.3
	.section	.rodata.str1.1,"aMS",%progbits,1
.L.str.3:
	.asciz	"/trig"
	.size	.L.str.3, 6

	.section	.init_array,"aw",%init_array
	.p2align	2
	.long	_GLOBAL__sub_I_render.ii(target1)
	.type	.L_MergedGlobals,%object @ @_MergedGlobals
	.data
	.p2align	4
.L_MergedGlobals:
	.long	0                       @ float 0
	.long	0                       @ float 0
	.long	0                       @ 0x0
	.long	2                       @ 0x2
	.long	1                       @ 0x1
	.long	0                       @ 0x0
	.long	0                       @ 0x0
	.long	0                       @ float 0
	.long	0                       @ float 0
	.long	0                       @ float 0
	.long	0                       @ float 0
	.zero	16
	.size	.L_MergedGlobals, 60
